target datalayout = "e-m:e-p270:32:32-p271:32:32-p272:64:64-i64:64-i128:128-f80:128-n8:16:32:64-S128"
target triple = "x86_64-pc-linux-gnu"

%struct.Extra_BitMat_t_ = type { ptr, i32, i32, i32, i32, i32, i32, i32 }

; Function Attrs: nounwind uwtable
define void @Extra_BitMatrixStop(ptr noundef %0) #0 {
  %2 = alloca ptr, align 8
  store ptr %0, ptr %2, align 8
  %3 = load ptr, ptr %2, align 8
  %4 = getelementptr inbounds %struct.Extra_BitMat_t_, ptr %3, i32 0, i32 0
  %5 = load ptr, ptr %4, align 8
  %6 = getelementptr inbounds ptr, ptr %5, i64 0
  %7 = load ptr, ptr %6, align 8
  %8 = icmp ne ptr %7, null
  br i1 %8, label %9, label %19

9:                                                ; preds = %1
  %10 = load ptr, ptr %2, align 8
  %11 = getelementptr inbounds %struct.Extra_BitMat_t_, ptr %10, i32 0, i32 0
  %12 = load ptr, ptr %11, align 8
  %13 = getelementptr inbounds ptr, ptr %12, i64 0
  %14 = load ptr, ptr %13, align 8
  call void @free(ptr noundef %14) #6
  %15 = load ptr, ptr %2, align 8
  %16 = getelementptr inbounds %struct.Extra_BitMat_t_, ptr %15, i32 0, i32 0
  %17 = load ptr, ptr %16, align 8
  %18 = getelementptr inbounds ptr, ptr %17, i64 0
  store ptr null, ptr %18, align 8
  br label %20

19:                                               ; preds = %1
  br label %20

20:                                               ; preds = %19, %9
  %21 = load ptr, ptr %2, align 8
  %22 = getelementptr inbounds %struct.Extra_BitMat_t_, ptr %21, i32 0, i32 0
  %23 = load ptr, ptr %22, align 8
  %24 = icmp ne ptr %23, null
  br i1 %24, label %25, label %31

25:                                               ; preds = %20
  %26 = load ptr, ptr %2, align 8
  %27 = getelementptr inbounds %struct.Extra_BitMat_t_, ptr %26, i32 0, i32 0
  %28 = load ptr, ptr %27, align 8
  call void @free(ptr noundef %28) #6
  %29 = load ptr, ptr %2, align 8
  %30 = getelementptr inbounds %struct.Extra_BitMat_t_, ptr %29, i32 0, i32 0
  store ptr null, ptr %30, align 8
  br label %32

31:                                               ; preds = %20
  br label %32

32:                                               ; preds = %31, %25
  %33 = load ptr, ptr %2, align 8
  %34 = icmp ne ptr %33, null
  br i1 %34, label %35, label %37

35:                                               ; preds = %32
  %36 = load ptr, ptr %2, align 8
  call void @free(ptr noundef %36) #6
  store ptr null, ptr %2, align 8
  br label %38

37:                                               ; preds = %32
  br label %38

38:                                               ; preds = %37, %35
  ret void
}