; Function Attrs: mustprogress nounwind willreturn uwtable
define void @Extra_BitMatrixStop(ptr noundef captures(none) %0) local_unnamed_addr #4 {
  %2 = load ptr, ptr %0, align 8
  %3 = load ptr, ptr %2, align 8
  %.not = icmp eq ptr %3, null
  br i1 %.not, label %.thread, label %4

4:                                                ; preds = %1
  tail call void @free(ptr noundef nonnull %3) #16
  %5 = load ptr, ptr %0, align 8
  store ptr null, ptr %5, align 8
  %.pr = load ptr, ptr %0, align 8
  %.not9 = icmp eq ptr %.pr, null
  br i1 %.not9, label %7, label %.thread

.thread:                                          ; preds = %1, %4
  %6 = phi ptr [ %.pr, %4 ], [ %2, %1 ]
  tail call void @free(ptr noundef nonnull %6) #16
  br label %7

7:                                                ; preds = %.thread, %4
  tail call void @free(ptr noundef nonnull %0) #16
  ret void
}